Certificate:
    Data:
        Version: 3 (0x2)
        Serial Number: 1 (0x1)
        Signature Algorithm: sha1WithRSAEncryption
        Issuer: C=ES, ST=ESPA\xC3\x83\xC2\x91A, L=BELLATERRA, O=UAB/emailAddress=GIS@UAB.CAT
        Validity
            Not Before: May  1 13:56:33 2022 GMT
            Not After : May  1 13:56:33 2023 GMT
        Subject: C=ES, ST=ESPA\xC3\x91A, O=UAB/emailAddress=CLIENT1@UAB.CAT
        Subject Public Key Info:
            Public Key Algorithm: rsaEncryption
                RSA Public-Key: (1024 bit)
                Modulus:
                    00:ab:d2:68:46:c7:77:37:5a:9c:90:3c:be:67:4c:
                    db:c7:03:fe:96:7f:e2:b5:57:4a:03:47:eb:44:59:
                    c1:f4:d9:4d:04:af:7b:78:8b:91:14:53:bd:4e:22:
                    59:3a:08:8f:66:1e:45:28:f2:41:28:01:65:37:7f:
                    5b:23:7e:ba:1e:e0:d4:82:93:12:22:a5:c6:0d:36:
                    2f:74:6f:de:44:1c:be:24:9c:39:ce:08:3e:36:e4:
                    c9:d2:09:1b:2a:50:75:fa:a9:7f:d3:a2:71:d9:cf:
                    1c:92:ba:fe:9f:06:50:d7:7c:ea:31:77:7e:91:36:
                    25:0c:07:7e:74:1c:a4:c9:67
                Exponent: 65537 (0x10001)
        X509v3 extensions:
            X509v3 Basic Constraints: 
                CA:FALSE
            Netscape Comment: 
                OpenSSL Generated Certificate
            X509v3 Subject Key Identifier: 
                B1:B7:41:63:FF:7D:9B:24:B8:72:2E:4C:60:BC:C9:BF:D5:1E:50:2F
            X509v3 Authority Key Identifier: 
                keyid:AF:E7:8B:EA:0A:AC:3B:6D:69:57:31:4D:7D:0A:AA:C4:20:F1:E7:2F

    Signature Algorithm: sha1WithRSAEncryption
         aa:86:7d:cc:27:33:79:cd:2b:a3:97:bd:18:3f:ff:48:db:6f:
         25:48:22:f8:4a:c8:81:9a:c9:b8:bd:36:42:25:46:d5:4d:88:
         c0:f4:51:01:8d:47:08:4a:45:2e:8f:32:ad:ce:be:ce:c5:13:
         e7:0b:37:6f:55:cd:f1:90:66:eb:06:c7:4e:ce:cd:76:43:f1:
         1e:f6:0f:c7:45:50:9c:c6:60:01:d9:be:2d:7e:b7:f6:53:f9:
         0c:9d:8c:24:29:53:c8:a6:4a:28:21:69:04:af:e5:95:79:8b:
         2b:9e:e4:6c:0c:f7:0c:38:ae:ce:ab:6d:ac:59:fe:b9:38:02:
         04:fa:b9:48:cd:df:36:e2:1b:31:ea:df:a0:e8:93:b9:2a:42:
         43:3c:26:2e:a8:4e:8b:a7:04:55:51:27:5e:e6:ec:42:ad:31:
         84:9b:b1:06:a1:6e:c7:9e:e5:9e:35:86:0d:96:a7:f2:09:e9:
         89:25:b7:4e:26:f9:59:92:2e:44:3c:a6:3a:17:30:3c:a9:71:
         6b:5d:32:55:ab:45:f1:94:10:00:86:45:d7:ad:cf:9e:b2:14:
         4f:c5:93:f3:cd:d5:e7:7d:a4:39:85:b4:8e:83:32:fc:6e:c5:
         2b:98:95:49:91:49:8d:f8:6f:28:c0:bf:4b:db:1b:b8:bb:de:
         63:51:ff:85
-----BEGIN CERTIFICATE-----
MIIDHzCCAgegAwIBAgIBATANBgkqhkiG9w0BAQUFADBgMQswCQYDVQQGEwJFUzES
MBAGA1UECAwJRVNQQcODwpFBMRMwEQYDVQQHDApCRUxMQVRFUlJBMQwwCgYDVQQK
DANVQUIxGjAYBgkqhkiG9w0BCQEWC0dJU0BVQUIuQ0FUMB4XDTIyMDUwMTEzNTYz
M1oXDTIzMDUwMTEzNTYzM1owTTELMAkGA1UEBhMCRVMxEDAOBgNVBAgUB0VTUEHD
kUExDDAKBgNVBAoTA1VBQjEeMBwGCSqGSIb3DQEJARYPQ0xJRU5UMUBVQUIuQ0FU
MIGfMA0GCSqGSIb3DQEBAQUAA4GNADCBiQKBgQCr0mhGx3c3WpyQPL5nTNvHA/6W
f+K1V0oDR+tEWcH02U0Er3t4i5EUU71OIlk6CI9mHkUo8kEoAWU3f1sjfroe4NSC
kxIipcYNNi90b95EHL4knDnOCD425MnSCRsqUHX6qX/TonHZzxySuv6fBlDXfOox
d36RNiUMB350HKTJZwIDAQABo3sweTAJBgNVHRMEAjAAMCwGCWCGSAGG+EIBDQQf
Fh1PcGVuU1NMIEdlbmVyYXRlZCBDZXJ0aWZpY2F0ZTAdBgNVHQ4EFgQUsbdBY/99
myS4ci5MYLzJv9UeUC8wHwYDVR0jBBgwFoAUr+eL6gqsO21pVzFNfQqqxCDx5y8w
DQYJKoZIhvcNAQEFBQADggEBAKqGfcwnM3nNK6OXvRg//0jbbyVIIvhKyIGaybi9
NkIlRtVNiMD0UQGNRwhKRS6PMq3Ovs7FE+cLN29VzfGQZusGx07OzXZD8R72D8dF
UJzGYAHZvi1+t/ZT+QydjCQpU8imSighaQSv5ZV5iyue5GwM9ww4rs6rbaxZ/rk4
AgT6uUjN3zbiGzHq36Dok7kqQkM8Ji6oTounBFVRJ17m7EKtMYSbsQahbsee5Z41
hg2Wp/IJ6Yklt04m+VmSLkQ8pjoXMDypcWtdMlWrRfGUEACGRdetz56yFE/Fk/PN
1ed9pDmFtI6DMvxuxSuYlUmRSY34byjAv0vbG7i73mNR/4U=
-----END CERTIFICATE-----
