Certificate:
    Data:
        Version: 3 (0x2)
        Serial Number: 2 (0x2)
        Signature Algorithm: sha1WithRSAEncryption
        Issuer: C=ES, ST=CATALONIA, L=BELLATERRA, O=UAB/emailAddress=GIS@UAB.CAT
        Validity
            Not Before: Apr 28 08:09:37 2022 GMT
            Not After : May 28 08:09:37 2022 GMT
        Subject: C=ES, ST=CATALONIA, O=UAB/emailAddress=GIS2@UAB.CAT
        Subject Public Key Info:
            Public Key Algorithm: rsaEncryption
                RSA Public-Key: (1024 bit)
                Modulus:
                    00:df:7c:1c:f4:e5:30:71:e4:38:17:0e:aa:7e:5d:
                    96:45:02:35:46:26:ec:3e:4d:31:48:45:3f:a8:85:
                    3e:78:5d:91:e8:f6:bd:fe:c0:16:00:0f:50:4c:8d:
                    05:78:75:1a:04:68:c1:d5:a8:9a:b6:b7:20:1c:9d:
                    0a:02:c1:b8:1f:be:68:34:ea:fa:05:a6:c5:d7:fa:
                    7c:9d:b4:b6:c0:87:2d:9a:92:66:46:19:b4:70:a7:
                    27:cc:6a:1d:bf:b0:4b:69:df:74:0d:1a:c2:61:f3:
                    51:9f:dc:21:93:2b:33:91:e7:e5:b2:de:85:60:c9:
                    80:08:73:e4:1b:f5:2d:12:9d
                Exponent: 65537 (0x10001)
        X509v3 extensions:
            X509v3 Basic Constraints: 
                CA:FALSE
            Netscape Comment: 
                OpenSSL Generated Certificate
            X509v3 Subject Key Identifier: 
                84:C9:B8:39:A0:8B:33:64:89:F7:74:9C:E7:92:77:3C:EC:A3:16:5B
            X509v3 Authority Key Identifier: 
                keyid:AF:E7:8B:EA:0A:AC:3B:6D:69:57:31:4D:7D:0A:AA:C4:20:F1:E7:2F

    Signature Algorithm: sha1WithRSAEncryption
         7f:07:9d:03:e9:b8:20:8d:24:c7:96:5d:7e:17:27:32:12:43:
         9c:67:62:d7:19:49:5e:0d:22:b9:3e:95:25:4e:8a:05:5f:7f:
         ce:86:11:61:ba:44:66:80:dc:ca:4e:ac:2e:ac:3a:ca:99:05:
         88:a1:8a:bf:92:dc:61:5e:dd:22:fd:01:e7:cc:29:b6:bc:bf:
         c7:bf:c2:a0:fb:48:ee:ce:26:78:d6:75:ce:54:e5:e4:7d:ca:
         bc:68:34:2d:40:89:bf:25:a5:53:2c:ea:a0:76:2e:40:4e:f9:
         57:e3:28:3b:21:47:8a:98:36:de:f2:85:cc:e1:8f:48:22:42:
         4d:e5:80:0d:7e:44:6f:7d:30:75:52:b5:d4:c8:d7:5d:6a:a4:
         dc:72:ce:16:5e:61:46:27:98:21:c6:21:85:9e:31:70:8e:77:
         3e:89:58:5a:77:be:95:b2:75:cd:57:9c:4b:07:21:07:84:59:
         ba:b9:f1:28:6a:83:ef:ca:7c:dd:c2:5f:a0:eb:f8:65:93:85:
         dc:29:e4:f1:20:45:db:3b:e1:0a:a4:b7:0d:1e:f5:df:7f:f1:
         5d:81:ad:3f:ef:16:a4:cc:de:0f:10:c0:87:f5:49:2b:7c:a6:
         91:9d:a0:00:23:10:cc:bf:84:5f:5e:aa:42:59:7b:0b:45:02:
         ba:e1:52:c7
-----BEGIN CERTIFICATE-----
MIIDHjCCAgagAwIBAgIBAjANBgkqhkiG9w0BAQUFADBgMQswCQYDVQQGEwJFUzES
MBAGA1UECAwJQ0FUQUxPTklBMRMwEQYDVQQHDApCRUxMQVRFUlJBMQwwCgYDVQQK
DANVQUIxGjAYBgkqhkiG9w0BCQEWC0dJU0BVQUIuQ0FUMB4XDTIyMDQyODA4MDkz
N1oXDTIyMDUyODA4MDkzN1owTDELMAkGA1UEBhMCRVMxEjAQBgNVBAgTCUNBVEFM
T05JQTEMMAoGA1UEChMDVUFCMRswGQYJKoZIhvcNAQkBFgxHSVMyQFVBQi5DQVQw
gZ8wDQYJKoZIhvcNAQEBBQADgY0AMIGJAoGBAN98HPTlMHHkOBcOqn5dlkUCNUYm
7D5NMUhFP6iFPnhdkej2vf7AFgAPUEyNBXh1GgRowdWomra3IBydCgLBuB++aDTq
+gWmxdf6fJ20tsCHLZqSZkYZtHCnJ8xqHb+wS2nfdA0awmHzUZ/cIZMrM5Hn5bLe
hWDJgAhz5Bv1LRKdAgMBAAGjezB5MAkGA1UdEwQCMAAwLAYJYIZIAYb4QgENBB8W
HU9wZW5TU0wgR2VuZXJhdGVkIENlcnRpZmljYXRlMB0GA1UdDgQWBBSEybg5oIsz
ZIn3dJznknc87KMWWzAfBgNVHSMEGDAWgBSv54vqCqw7bWlXMU19CqrEIPHnLzAN
BgkqhkiG9w0BAQUFAAOCAQEAfwedA+m4II0kx5ZdfhcnMhJDnGdi1xlJXg0iuT6V
JU6KBV9/zoYRYbpEZoDcyk6sLqw6ypkFiKGKv5LcYV7dIv0B58wptry/x7/CoPtI
7s4meNZ1zlTl5H3KvGg0LUCJvyWlUyzqoHYuQE75V+MoOyFHipg23vKFzOGPSCJC
TeWADX5Eb30wdVK11MjXXWqk3HLOFl5hRieYIcYhhZ4xcI53PolYWne+lbJ1zVec
SwchB4RZurnxKGqD78p83cJfoOv4ZZOF3Cnk8SBF2zvhCqS3DR7133/xXYGtP+8W
pMzeDxDAh/VJK3ymkZ2gACMQzL+EX16qQll7C0UCuuFSxw==
-----END CERTIFICATE-----
