Certificate:
    Data:
        Version: 3 (0x2)
        Serial Number: 2 (0x2)
        Signature Algorithm: sha1WithRSAEncryption
        Issuer: C=ES, ST=ESPA\xC3\x83\xC2\x91A, L=BELLATERRA, O=UAB/emailAddress=GIS@UAB.CAT
        Validity
            Not Before: May  1 13:56:48 2022 GMT
            Not After : May 31 13:56:48 2022 GMT
        Subject: C=ES, ST=ESPA\xC3\x91A, O=UAB/emailAddress=CLIENT2@UAB.CAT
        Subject Public Key Info:
            Public Key Algorithm: rsaEncryption
                RSA Public-Key: (1024 bit)
                Modulus:
                    00:95:0e:dd:d7:a1:3a:be:59:92:b3:28:96:de:f1:
                    ee:04:5e:1b:ed:2a:e9:62:17:40:46:51:70:59:fe:
                    42:21:2f:f3:99:b9:e3:bf:ef:bb:c7:2d:19:55:37:
                    d2:cb:06:e2:7d:6f:6c:5d:df:3e:2d:f1:dd:6e:0b:
                    14:e9:6e:8a:5e:df:ab:02:9a:90:4c:30:8b:7a:59:
                    19:10:8c:ae:d5:29:14:f5:5f:b6:83:67:80:56:15:
                    31:93:b8:e1:9d:e2:f7:bf:b4:2b:27:e0:2e:77:59:
                    18:29:80:c6:33:f3:fa:64:8a:3c:fa:f6:db:bd:05:
                    c1:58:0c:c7:6e:35:fd:7d:fd
                Exponent: 65537 (0x10001)
        X509v3 extensions:
            X509v3 Basic Constraints: 
                CA:FALSE
            Netscape Comment: 
                OpenSSL Generated Certificate
            X509v3 Subject Key Identifier: 
                9C:97:80:4F:ED:93:48:44:01:58:38:85:34:9D:92:79:0E:80:25:C4
            X509v3 Authority Key Identifier: 
                keyid:AF:E7:8B:EA:0A:AC:3B:6D:69:57:31:4D:7D:0A:AA:C4:20:F1:E7:2F

    Signature Algorithm: sha1WithRSAEncryption
         66:7f:f7:d0:6c:27:f2:74:a4:10:28:ae:d5:79:72:a7:34:e9:
         bd:9c:2a:48:15:80:68:07:8e:a4:df:1e:a2:ed:9d:ff:f0:98:
         3a:ff:64:39:cf:9a:d1:87:8f:50:f3:61:68:c4:e6:2f:8c:5c:
         dc:61:28:3e:0d:38:64:73:ad:40:e6:d4:6b:8e:2d:24:e1:80:
         f6:d4:f0:55:a7:ca:b5:d7:7d:05:02:12:0f:c9:fd:5c:a9:29:
         81:bd:80:42:aa:00:33:f5:99:bb:2b:7c:a0:10:d7:68:1d:b2:
         1d:5f:af:50:bb:04:66:29:cc:1d:ec:0c:91:b7:c6:26:be:35:
         d9:20:04:8d:5f:d6:0b:f5:b2:09:40:08:41:54:f7:ba:d3:47:
         48:97:15:33:84:c5:bd:ec:a6:c7:7b:df:53:e1:47:74:76:c0:
         6c:88:ca:f5:fb:ea:e8:fd:cb:c3:2e:a3:8b:64:2d:b0:94:a8:
         9a:af:68:17:22:96:2b:db:d0:86:41:21:fb:95:7b:9c:90:6f:
         cc:f7:da:0a:6f:cb:ff:5a:99:cb:17:8e:8d:eb:5f:26:17:cb:
         84:ec:fe:7d:a6:6a:4e:c1:d7:4e:81:0e:36:b3:85:cf:08:f0:
         98:2e:3b:57:98:3d:d0:4b:df:d9:b7:0a:ef:b6:8a:85:f6:24:
         ed:13:cf:28
-----BEGIN CERTIFICATE-----
MIIDHzCCAgegAwIBAgIBAjANBgkqhkiG9w0BAQUFADBgMQswCQYDVQQGEwJFUzES
MBAGA1UECAwJRVNQQcODwpFBMRMwEQYDVQQHDApCRUxMQVRFUlJBMQwwCgYDVQQK
DANVQUIxGjAYBgkqhkiG9w0BCQEWC0dJU0BVQUIuQ0FUMB4XDTIyMDUwMTEzNTY0
OFoXDTIyMDUzMTEzNTY0OFowTTELMAkGA1UEBhMCRVMxEDAOBgNVBAgUB0VTUEHD
kUExDDAKBgNVBAoTA1VBQjEeMBwGCSqGSIb3DQEJARYPQ0xJRU5UMkBVQUIuQ0FU
MIGfMA0GCSqGSIb3DQEBAQUAA4GNADCBiQKBgQCVDt3XoTq+WZKzKJbe8e4EXhvt
KuliF0BGUXBZ/kIhL/OZueO/77vHLRlVN9LLBuJ9b2xd3z4t8d1uCxTpbope36sC
mpBMMIt6WRkQjK7VKRT1X7aDZ4BWFTGTuOGd4ve/tCsn4C53WRgpgMYz8/pkijz6
9tu9BcFYDMduNf19/QIDAQABo3sweTAJBgNVHRMEAjAAMCwGCWCGSAGG+EIBDQQf
Fh1PcGVuU1NMIEdlbmVyYXRlZCBDZXJ0aWZpY2F0ZTAdBgNVHQ4EFgQUnJeAT+2T
SEQBWDiFNJ2SeQ6AJcQwHwYDVR0jBBgwFoAUr+eL6gqsO21pVzFNfQqqxCDx5y8w
DQYJKoZIhvcNAQEFBQADggEBAGZ/99BsJ/J0pBAortV5cqc06b2cKkgVgGgHjqTf
HqLtnf/wmDr/ZDnPmtGHj1DzYWjE5i+MXNxhKD4NOGRzrUDm1GuOLSThgPbU8FWn
yrXXfQUCEg/J/VypKYG9gEKqADP1mbsrfKAQ12gdsh1fr1C7BGYpzB3sDJG3xia+
NdkgBI1f1gv1sglACEFU97rTR0iXFTOExb3spsd731PhR3R2wGyIyvX76uj9y8Mu
o4tkLbCUqJqvaBcilivb0IZBIfuVe5yQb8z32gpvy/9amcsXjo3rXyYXy4Ts/n2m
ak7B106BDjazhc8I8JguO1eYPdBL39m3Cu+2ioX2JO0Tzyg=
-----END CERTIFICATE-----
