Certificate:
    Data:
        Version: 3 (0x2)
        Serial Number: 3 (0x3)
        Signature Algorithm: sha1WithRSAEncryption
        Issuer: C=ES, ST=ESPA\xC3\x83\xC2\x91A, L=BELLATERRA, O=UAB/emailAddress=GIS@UAB.CAT
        Validity
            Not Before: May  1 13:40:43 2022 GMT
            Not After : May  1 13:40:43 2023 GMT
        Subject: C=ES, ST=ESPA\xC3\x91A, O=UAB/emailAddress=CLIENT1@UAB.CAT
        Subject Public Key Info:
            Public Key Algorithm: rsaEncryption
                RSA Public-Key: (1024 bit)
                Modulus:
                    00:ab:d2:68:46:c7:77:37:5a:9c:90:3c:be:67:4c:
                    db:c7:03:fe:96:7f:e2:b5:57:4a:03:47:eb:44:59:
                    c1:f4:d9:4d:04:af:7b:78:8b:91:14:53:bd:4e:22:
                    59:3a:08:8f:66:1e:45:28:f2:41:28:01:65:37:7f:
                    5b:23:7e:ba:1e:e0:d4:82:93:12:22:a5:c6:0d:36:
                    2f:74:6f:de:44:1c:be:24:9c:39:ce:08:3e:36:e4:
                    c9:d2:09:1b:2a:50:75:fa:a9:7f:d3:a2:71:d9:cf:
                    1c:92:ba:fe:9f:06:50:d7:7c:ea:31:77:7e:91:36:
                    25:0c:07:7e:74:1c:a4:c9:67
                Exponent: 65537 (0x10001)
        X509v3 extensions:
            X509v3 Basic Constraints: 
                CA:FALSE
            Netscape Comment: 
                OpenSSL Generated Certificate
            X509v3 Subject Key Identifier: 
                B1:B7:41:63:FF:7D:9B:24:B8:72:2E:4C:60:BC:C9:BF:D5:1E:50:2F
            X509v3 Authority Key Identifier: 
                keyid:AF:E7:8B:EA:0A:AC:3B:6D:69:57:31:4D:7D:0A:AA:C4:20:F1:E7:2F

    Signature Algorithm: sha1WithRSAEncryption
         80:5e:f3:ab:6e:2b:f0:94:18:aa:88:23:47:8d:22:db:58:aa:
         a7:e3:11:03:fc:b6:63:1d:69:22:d9:83:70:df:e6:fc:05:5b:
         57:37:a4:09:b7:2e:fe:6a:20:61:94:20:b7:1e:06:5b:c2:dc:
         2f:dd:0f:5d:3b:c3:d7:52:e8:6b:8a:21:c8:8f:a1:92:16:2f:
         ab:01:54:70:d0:e7:f4:ea:b9:f8:03:b7:04:41:41:4e:0d:b6:
         15:79:cd:52:b3:1a:ec:b1:1a:cb:35:49:cb:97:4f:09:76:d4:
         37:f5:ab:45:b6:4a:18:b2:fc:9a:ef:a9:f7:65:e5:6c:56:06:
         a8:a0:51:8e:34:d0:7f:4e:66:8f:fb:8d:b0:d5:0f:57:b5:c8:
         51:42:40:c0:3b:f1:71:55:b8:db:46:87:f4:b7:c7:4f:a1:3d:
         c1:d3:a5:55:4a:b5:e7:de:f0:15:12:be:7a:c2:4b:5f:03:8e:
         b2:5b:c3:3b:d2:bb:27:52:63:88:db:32:76:ec:d8:22:ed:90:
         e1:27:06:98:53:55:e0:c4:70:9b:b0:59:02:5c:d4:6f:cd:c3:
         40:d3:ec:93:9c:c0:59:37:63:10:c7:ab:0b:1f:4e:98:c3:94:
         79:f3:6f:46:40:b0:b1:4b:d1:72:0c:e0:b5:cd:5c:e2:9a:10:
         0d:f0:94:af
-----BEGIN CERTIFICATE-----
MIIDHzCCAgegAwIBAgIBAzANBgkqhkiG9w0BAQUFADBgMQswCQYDVQQGEwJFUzES
MBAGA1UECAwJRVNQQcODwpFBMRMwEQYDVQQHDApCRUxMQVRFUlJBMQwwCgYDVQQK
DANVQUIxGjAYBgkqhkiG9w0BCQEWC0dJU0BVQUIuQ0FUMB4XDTIyMDUwMTEzNDA0
M1oXDTIzMDUwMTEzNDA0M1owTTELMAkGA1UEBhMCRVMxEDAOBgNVBAgUB0VTUEHD
kUExDDAKBgNVBAoTA1VBQjEeMBwGCSqGSIb3DQEJARYPQ0xJRU5UMUBVQUIuQ0FU
MIGfMA0GCSqGSIb3DQEBAQUAA4GNADCBiQKBgQCr0mhGx3c3WpyQPL5nTNvHA/6W
f+K1V0oDR+tEWcH02U0Er3t4i5EUU71OIlk6CI9mHkUo8kEoAWU3f1sjfroe4NSC
kxIipcYNNi90b95EHL4knDnOCD425MnSCRsqUHX6qX/TonHZzxySuv6fBlDXfOox
d36RNiUMB350HKTJZwIDAQABo3sweTAJBgNVHRMEAjAAMCwGCWCGSAGG+EIBDQQf
Fh1PcGVuU1NMIEdlbmVyYXRlZCBDZXJ0aWZpY2F0ZTAdBgNVHQ4EFgQUsbdBY/99
myS4ci5MYLzJv9UeUC8wHwYDVR0jBBgwFoAUr+eL6gqsO21pVzFNfQqqxCDx5y8w
DQYJKoZIhvcNAQEFBQADggEBAIBe86tuK/CUGKqII0eNIttYqqfjEQP8tmMdaSLZ
g3Df5vwFW1c3pAm3Lv5qIGGUILceBlvC3C/dD107w9dS6GuKIciPoZIWL6sBVHDQ
5/TqufgDtwRBQU4NthV5zVKzGuyxGss1ScuXTwl21Df1q0W2Shiy/Jrvqfdl5WxW
BqigUY400H9OZo/7jbDVD1e1yFFCQMA78XFVuNtGh/S3x0+hPcHTpVVKtefe8BUS
vnrCS18DjrJbwzvSuydSY4jbMnbs2CLtkOEnBphTVeDEcJuwWQJc1G/Nw0DT7JOc
wFk3YxDHqwsfTpjDlHnzb0ZAsLFL0XIM4LXNXOKaEA3wlK8=
-----END CERTIFICATE-----
