Certificate:
    Data:
        Version: 3 (0x2)
        Serial Number: 4 (0x4)
        Signature Algorithm: sha1WithRSAEncryption
        Issuer: C=ES, ST=ESPA\xC3\x83\xC2\x91A, L=BELLATERRA, O=UAB/emailAddress=GIS@UAB.CAT
        Validity
            Not Before: May  1 13:41:10 2022 GMT
            Not After : May  1 13:41:10 2023 GMT
        Subject: C=ES, ST=ESPA\xC3\x91A, O=UAB/emailAddress=CLIENT2@UAB.CAT
        Subject Public Key Info:
            Public Key Algorithm: rsaEncryption
                RSA Public-Key: (1024 bit)
                Modulus:
                    00:95:0e:dd:d7:a1:3a:be:59:92:b3:28:96:de:f1:
                    ee:04:5e:1b:ed:2a:e9:62:17:40:46:51:70:59:fe:
                    42:21:2f:f3:99:b9:e3:bf:ef:bb:c7:2d:19:55:37:
                    d2:cb:06:e2:7d:6f:6c:5d:df:3e:2d:f1:dd:6e:0b:
                    14:e9:6e:8a:5e:df:ab:02:9a:90:4c:30:8b:7a:59:
                    19:10:8c:ae:d5:29:14:f5:5f:b6:83:67:80:56:15:
                    31:93:b8:e1:9d:e2:f7:bf:b4:2b:27:e0:2e:77:59:
                    18:29:80:c6:33:f3:fa:64:8a:3c:fa:f6:db:bd:05:
                    c1:58:0c:c7:6e:35:fd:7d:fd
                Exponent: 65537 (0x10001)
        X509v3 extensions:
            X509v3 Basic Constraints: 
                CA:FALSE
            Netscape Comment: 
                OpenSSL Generated Certificate
            X509v3 Subject Key Identifier: 
                9C:97:80:4F:ED:93:48:44:01:58:38:85:34:9D:92:79:0E:80:25:C4
            X509v3 Authority Key Identifier: 
                keyid:AF:E7:8B:EA:0A:AC:3B:6D:69:57:31:4D:7D:0A:AA:C4:20:F1:E7:2F

    Signature Algorithm: sha1WithRSAEncryption
         93:9d:c6:22:83:ed:c0:df:be:c2:a6:ce:db:d9:98:07:5d:7b:
         82:a4:41:8f:b4:2b:53:c9:60:a8:03:f0:5e:94:60:be:94:17:
         92:3a:30:79:9c:5c:50:6c:6f:d0:03:6d:26:44:66:4e:3f:70:
         21:73:40:af:dc:7e:03:f7:c9:5f:bd:8b:9f:f4:df:9a:e8:ac:
         3c:eb:9a:28:0d:92:8c:43:80:a5:25:af:d5:50:53:33:8a:99:
         4c:70:58:4a:f6:fe:ee:dc:a4:4c:03:15:39:1c:c2:7c:7c:36:
         fa:6b:f3:69:27:e6:e9:24:ac:3c:13:f8:af:d8:f2:17:85:0d:
         25:65:4d:f8:09:4a:01:78:82:1f:f3:e4:58:9e:da:91:58:b1:
         01:80:03:2a:ce:c4:76:0d:e0:bf:c5:d8:4d:16:1f:53:21:cf:
         04:1d:29:13:b4:05:f4:a7:3b:7d:87:5a:66:a1:a6:38:01:76:
         82:85:0a:86:c1:24:71:99:f6:f9:86:44:7d:1a:84:40:ba:dd:
         8b:5a:ee:b0:e8:cf:bb:50:9a:9a:aa:79:77:75:af:48:6d:32:
         a6:01:59:03:05:69:c3:c7:e7:dd:70:94:e7:40:99:f7:a4:52:
         ac:e9:35:8b:d1:38:97:9f:6d:61:c5:00:f8:55:c8:e4:78:8e:
         67:1d:f1:c6
-----BEGIN CERTIFICATE-----
MIIDHzCCAgegAwIBAgIBBDANBgkqhkiG9w0BAQUFADBgMQswCQYDVQQGEwJFUzES
MBAGA1UECAwJRVNQQcODwpFBMRMwEQYDVQQHDApCRUxMQVRFUlJBMQwwCgYDVQQK
DANVQUIxGjAYBgkqhkiG9w0BCQEWC0dJU0BVQUIuQ0FUMB4XDTIyMDUwMTEzNDEx
MFoXDTIzMDUwMTEzNDExMFowTTELMAkGA1UEBhMCRVMxEDAOBgNVBAgUB0VTUEHD
kUExDDAKBgNVBAoTA1VBQjEeMBwGCSqGSIb3DQEJARYPQ0xJRU5UMkBVQUIuQ0FU
MIGfMA0GCSqGSIb3DQEBAQUAA4GNADCBiQKBgQCVDt3XoTq+WZKzKJbe8e4EXhvt
KuliF0BGUXBZ/kIhL/OZueO/77vHLRlVN9LLBuJ9b2xd3z4t8d1uCxTpbope36sC
mpBMMIt6WRkQjK7VKRT1X7aDZ4BWFTGTuOGd4ve/tCsn4C53WRgpgMYz8/pkijz6
9tu9BcFYDMduNf19/QIDAQABo3sweTAJBgNVHRMEAjAAMCwGCWCGSAGG+EIBDQQf
Fh1PcGVuU1NMIEdlbmVyYXRlZCBDZXJ0aWZpY2F0ZTAdBgNVHQ4EFgQUnJeAT+2T
SEQBWDiFNJ2SeQ6AJcQwHwYDVR0jBBgwFoAUr+eL6gqsO21pVzFNfQqqxCDx5y8w
DQYJKoZIhvcNAQEFBQADggEBAJOdxiKD7cDfvsKmztvZmAdde4KkQY+0K1PJYKgD
8F6UYL6UF5I6MHmcXFBsb9ADbSZEZk4/cCFzQK/cfgP3yV+9i5/035rorDzrmigN
koxDgKUlr9VQUzOKmUxwWEr2/u7cpEwDFTkcwnx8Nvpr82kn5ukkrDwT+K/Y8heF
DSVlTfgJSgF4gh/z5Fie2pFYsQGAAyrOxHYN4L/F2E0WH1MhzwQdKRO0BfSnO32H
WmahpjgBdoKFCobBJHGZ9vmGRH0ahEC63Yta7rDoz7tQmpqqeXd1r0htMqYBWQMF
acPH591wlOdAmfekUqzpNYvROJefbWHFAPhVyOR4jmcd8cY=
-----END CERTIFICATE-----
