Certificate:
    Data:
        Version: 3 (0x2)
        Serial Number: 1 (0x1)
        Signature Algorithm: sha1WithRSAEncryption
        Issuer: C=ES, ST=CATALONIA, L=BELLATERRA, O=UAB/emailAddress=GIS@UAB.CAT
        Validity
            Not Before: Apr 28 08:09:19 2022 GMT
            Not After : Apr 28 08:09:19 2023 GMT
        Subject: C=ES, ST=CATALONIA, O=UAB/emailAddress=GIS@UAB.CAT
        Subject Public Key Info:
            Public Key Algorithm: rsaEncryption
                RSA Public-Key: (1024 bit)
                Modulus:
                    00:bd:fc:09:a6:41:71:fd:4c:96:5c:0d:db:7e:ff:
                    ad:6f:69:48:4e:b3:68:a7:8e:0b:c5:a1:cf:f4:13:
                    f2:c8:49:07:dd:f4:cd:c7:c2:2f:51:76:d8:19:aa:
                    18:0f:30:32:06:fa:ca:e6:fd:68:bc:18:31:b7:96:
                    84:8c:47:10:83:22:36:67:f3:32:31:40:e4:0a:8f:
                    65:52:d6:b9:35:fa:ce:39:43:e8:08:21:31:43:76:
                    d6:be:52:bb:5a:5a:ec:81:38:d3:a3:7b:c9:7e:77:
                    99:e9:4b:74:58:99:52:2b:cd:9d:aa:c8:7a:7b:a6:
                    b0:5f:16:52:2a:34:d8:58:2d
                Exponent: 65537 (0x10001)
        X509v3 extensions:
            X509v3 Basic Constraints: 
                CA:FALSE
            Netscape Comment: 
                OpenSSL Generated Certificate
            X509v3 Subject Key Identifier: 
                33:A6:18:0D:B5:03:FC:1D:A4:D4:4F:A5:55:1F:0D:30:56:BD:B4:83
            X509v3 Authority Key Identifier: 
                keyid:AF:E7:8B:EA:0A:AC:3B:6D:69:57:31:4D:7D:0A:AA:C4:20:F1:E7:2F

    Signature Algorithm: sha1WithRSAEncryption
         62:86:38:5e:32:cc:41:98:62:e0:17:4f:2c:45:22:dd:51:64:
         b8:c0:3e:cd:17:22:0b:5f:3e:ef:7b:71:74:30:6b:78:f3:81:
         0c:ab:03:b2:d6:57:74:3e:4b:21:ca:89:48:56:1b:ee:1e:53:
         82:50:33:d2:1f:70:b5:ab:3c:95:03:bc:2b:b5:26:22:3f:3d:
         c3:fe:eb:af:ea:d8:85:2e:53:77:9c:89:22:bd:78:25:2d:c3:
         5a:c2:1d:6d:8c:c3:40:82:95:c9:4f:03:f5:7a:fc:14:58:a9:
         dd:17:cc:bb:d7:2c:e1:f8:dc:26:47:5d:a6:21:9c:6d:52:47:
         8a:61:b6:87:c8:e2:1f:f7:d4:d7:7f:6b:45:c6:44:cb:c2:87:
         d4:ff:7b:f2:12:29:c8:c4:af:c7:37:95:c0:e2:96:c1:53:86:
         39:c0:6f:3f:11:2a:95:a1:f6:62:08:3d:e1:e2:b1:dd:9a:5a:
         a3:f8:ed:00:4f:d6:64:e7:dc:b8:42:5a:60:ea:70:29:7e:fa:
         70:cf:3a:63:86:1d:db:cc:67:48:f5:9a:46:e7:42:02:1a:7c:
         37:f2:a7:2a:0d:75:ff:b8:24:ac:2a:2d:c9:19:94:44:b7:02:
         40:00:d7:10:91:70:0b:4c:7a:35:03:30:87:48:69:ed:dd:4b:
         57:4f:67:07
-----BEGIN CERTIFICATE-----
MIIDHTCCAgWgAwIBAgIBATANBgkqhkiG9w0BAQUFADBgMQswCQYDVQQGEwJFUzES
MBAGA1UECAwJQ0FUQUxPTklBMRMwEQYDVQQHDApCRUxMQVRFUlJBMQwwCgYDVQQK
DANVQUIxGjAYBgkqhkiG9w0BCQEWC0dJU0BVQUIuQ0FUMB4XDTIyMDQyODA4MDkx
OVoXDTIzMDQyODA4MDkxOVowSzELMAkGA1UEBhMCRVMxEjAQBgNVBAgTCUNBVEFM
T05JQTEMMAoGA1UEChMDVUFCMRowGAYJKoZIhvcNAQkBFgtHSVNAVUFCLkNBVDCB
nzANBgkqhkiG9w0BAQEFAAOBjQAwgYkCgYEAvfwJpkFx/UyWXA3bfv+tb2lITrNo
p44LxaHP9BPyyEkH3fTNx8IvUXbYGaoYDzAyBvrK5v1ovBgxt5aEjEcQgyI2Z/My
MUDkCo9lUta5NfrOOUPoCCExQ3bWvlK7WlrsgTjTo3vJfneZ6Ut0WJlSK82dqsh6
e6awXxZSKjTYWC0CAwEAAaN7MHkwCQYDVR0TBAIwADAsBglghkgBhvhCAQ0EHxYd
T3BlblNTTCBHZW5lcmF0ZWQgQ2VydGlmaWNhdGUwHQYDVR0OBBYEFDOmGA21A/wd
pNRPpVUfDTBWvbSDMB8GA1UdIwQYMBaAFK/ni+oKrDttaVcxTX0KqsQg8ecvMA0G
CSqGSIb3DQEBBQUAA4IBAQBihjheMsxBmGLgF08sRSLdUWS4wD7NFyILXz7ve3F0
MGt484EMqwOy1ld0PkshyolIVhvuHlOCUDPSH3C1qzyVA7wrtSYiPz3D/uuv6tiF
LlN3nIkivXglLcNawh1tjMNAgpXJTwP1evwUWKndF8y71yzh+NwmR12mIZxtUkeK
YbaHyOIf99TXf2tFxkTLwofU/3vyEinIxK/HN5XA4pbBU4Y5wG8/ESqVofZiCD3h
4rHdmlqj+O0AT9Zk59y4Qlpg6nApfvpwzzpjhh3bzGdI9ZpG50ICGnw38qcqDXX/
uCSsKi3JGZREtwJAANcQkXALTHo1AzCHSGnt3UtXT2cH
-----END CERTIFICATE-----
